target datalayout = "e-m:e-p270:32:32-p271:32:32-p272:64:64-i64:64-i128:128-f80:128-n8:16:32:64-S128"
target triple = "x86_64-pc-linux-gnu"

@hf_nfapi_earfcn = internal global i32 0, align 4
@hf_nfapi_timeout = internal global i32 0, align 4
@hf_nfapi_pci = internal global i32 0, align 4

; Function Attrs: nounwind uwtable
define internal void @dissect_lte_broadcast_detect_request_value(ptr noundef %0, ptr noundef %1) #0 {
  %3 = alloca ptr, align 8
  %4 = alloca ptr, align 8
  store ptr %0, ptr %3, align 8
  store ptr %1, ptr %4, align 8
  %5 = load ptr, ptr %3, align 8
  %6 = load i32, ptr @hf_nfapi_earfcn, align 4
  %7 = call ptr @ptvcursor_add(ptr noundef %5, i32 noundef %6, i32 noundef 2, i32 noundef 0)
  %8 = load ptr, ptr %3, align 8
  %9 = load i32, ptr @hf_nfapi_pci, align 4
  %10 = call ptr @ptvcursor_add(ptr noundef %8, i32 noundef %9, i32 noundef 2, i32 noundef 0)
  %11 = load ptr, ptr %3, align 8
  %12 = load i32, ptr @hf_nfapi_timeout, align 4
  %13 = call ptr @ptvcursor_add(ptr noundef %11, i32 noundef %12, i32 noundef 4, i32 noundef 0)
  ret void
}