; Function Attrs: nounwind uwtable
define internal void @dissect_lte_broadcast_detect_request_value(ptr noundef %0, ptr readnone captures(none) %1) #0 {
  %3 = load i32, ptr @hf_nfapi_earfcn, align 4
  %4 = tail call ptr @ptvcursor_add(ptr noundef %0, i32 noundef %3, i32 noundef 2, i32 noundef 0) #7
  %5 = load i32, ptr @hf_nfapi_pci, align 4
  %6 = tail call ptr @ptvcursor_add(ptr noundef %0, i32 noundef %5, i32 noundef 2, i32 noundef 0) #7
  %7 = load i32, ptr @hf_nfapi_timeout, align 4
  %8 = tail call ptr @ptvcursor_add(ptr noundef %0, i32 noundef %7, i32 noundef 4, i32 noundef 0) #7
  ret void
}